(dp1
S'sort_id'
p2
NsS'sort_order'
p3
NsS'columns'
p4
(dp5
S'Taille'
p6
(dp7
S'position'
p8
I1
sS'width'
p9
I53
ssS'Priorit\xc3\xa9'
p10
(dp11
g8
I3
sg9
I338
ssS'Progression'
p12
(dp13
g8
I2
sg9
I103
ssS'Nom de Fichier'
p14
(dp15
g8
I0
sg9
I200
sss.