(dp1
S'sort_id'
p2
NsS'sort_order'
p3
NsS'columns'
p4
(dp5
S'Progression'
p6
(dp7
S'position'
p8
I3
sS'width'
p9
I103
ssS'Adresse'
p10
(dp11
g8
I1
sg9
I100
ssN(dp12
g8
I0
sg9
I20
ssS'Client'
p13
(dp14
g8
I2
sg9
I100
ssS'Vitesse de r\xc3\xa9ception'
p15
(dp16
g8
I4
sg9
I167
ssS"Vitesse d'envoi"
p17
(dp18
g8
I5
sg9
I204
sss.